target datalayout = "e-m:e-p270:32:32-p271:32:32-p272:64:64-i64:64-i128:128-f80:128-n8:16:32:64-S128"
target triple = "x86_64-pc-linux-gnu"

%struct.Dar_Lib_t_ = type { ptr, i32, i32, [222 x i32], [222 x ptr], ptr, i32, ptr, [222 x ptr], ptr, [222 x ptr], ptr, [222 x ptr], [222 x i32], [222 x ptr], ptr, i32, i32, i32, [222 x i32], [222 x ptr], ptr, i32, [222 x i32], [222 x ptr], ptr, i32, ptr, i32, ptr, ptr, ptr, ptr, ptr }
%struct.Vec_Int_t_ = type { i32, i32, ptr }
%struct.Dar_Cut_t_ = type { i32, i32, [4 x i32] }
%struct.Dar_Man_t_ = type { ptr, ptr, ptr, ptr, ptr, ptr, i32, i32, i32, i32, i32, i32, [222 x i32], [222 x i32], [222 x i32], i32, i32, i32, i32, i32, i32, i32, i32, i32, i64, i64, i64, i64, i64, i64 }
%struct.Dar_LibDat_t_ = type { %union.anon, i32, i32, float, i8, [3 x i8] }
%union.anon = type { ptr }
%struct.Aig_Obj_t_ = type { %union.anon.0, ptr, ptr, i64, i32, i32, %union.anon.1 }
%union.anon.0 = type { ptr }
%union.anon.1 = type { ptr }
%struct.Dar_RwrPar_t_ = type { i32, i32, i32, i32, i32, i32, i32, i32, i32, i32 }
%struct.Aig_Man_t_ = type { ptr, ptr, ptr, ptr, ptr, ptr, ptr, %struct.Aig_Obj_t_, i32, i32, i32, i32, i32, i32, [7 x i32], i32, ptr, i32, ptr, i32, ptr, i32, i32, i32, ptr, i32, i32, i32, i32, i32, ptr, ptr, i32, ptr, ptr, i32, ptr, ptr, i32, i32, i32, ptr, ptr, ptr, ptr, ptr, ptr, ptr, ptr, ptr, ptr, ptr, ptr, ptr, ptr, i32, ptr, ptr, ptr, ptr, i32, i64, i64, i64, ptr, ptr }
%union.anon.2 = type { i32 }
%struct.Vec_Ptr_t_ = type { i32, i32, ptr }

@s_DarLib = internal global ptr null, align 8

; Function Attrs: nounwind uwtable
define internal ptr @Vec_PtrEntry(ptr noundef %0, i32 noundef %1) #0 {
  %3 = alloca ptr, align 8
  %4 = alloca i32, align 4
  store ptr %0, ptr %3, align 8
  store i32 %1, ptr %4, align 4
  %5 = load ptr, ptr %3, align 8
  %6 = getelementptr inbounds %struct.Vec_Ptr_t_, ptr %5, i32 0, i32 2
  %7 = load ptr, ptr %6, align 8
  %8 = load i32, ptr %4, align 4
  %9 = sext i32 %8 to i64
  %10 = getelementptr inbounds ptr, ptr %7, i64 %9
  %11 = load ptr, ptr %10, align 8
  ret ptr %11
}

; Function Attrs: nounwind uwtable
define internal i32 @Aig_IsComplement(ptr noundef %0) #0 {
  %2 = alloca ptr, align 8
  store ptr %0, ptr %2, align 8
  %3 = load ptr, ptr %2, align 8
  %4 = ptrtoint ptr %3 to i64
  %5 = and i64 %4, 1
  %6 = trunc i64 %5 to i32
  ret i32 %6
}

; Function Attrs: nounwind uwtable
define internal float @Abc_Int2Float(i32 noundef %0) #0 {
  %2 = alloca i32, align 4
  %3 = alloca %union.anon.2, align 4
  store i32 %0, ptr %2, align 4
  %4 = load i32, ptr %2, align 4
  store i32 %4, ptr %3, align 4
  %5 = load float, ptr %3, align 4
  ret float %5
}

; Function Attrs: nounwind uwtable
define internal i32 @Vec_IntEntry(ptr noundef %0, i32 noundef %1) #0 {
  %3 = alloca ptr, align 8
  %4 = alloca i32, align 4
  store ptr %0, ptr %3, align 8
  store i32 %1, ptr %4, align 4
  %5 = load ptr, ptr %3, align 8
  %6 = getelementptr inbounds %struct.Vec_Int_t_, ptr %5, i32 0, i32 2
  %7 = load ptr, ptr %6, align 8
  %8 = load i32, ptr %4, align 4
  %9 = sext i32 %8 to i64
  %10 = getelementptr inbounds i32, ptr %7, i64 %9
  %11 = load i32, ptr %10, align 4
  ret i32 %11
}

; Function Attrs: nounwind uwtable
define internal i32 @Aig_ObjId(ptr noundef %0) #0 {
  %2 = alloca ptr, align 8
  store ptr %0, ptr %2, align 8
  %3 = load ptr, ptr %2, align 8
  %4 = getelementptr inbounds %struct.Aig_Obj_t_, ptr %3, i32 0, i32 5
  %5 = load i32, ptr %4, align 4
  ret i32 %5
}

; Function Attrs: nounwind uwtable
define internal ptr @Aig_Regular(ptr noundef %0) #0 {
  %2 = alloca ptr, align 8
  store ptr %0, ptr %2, align 8
  %3 = load ptr, ptr %2, align 8
  %4 = ptrtoint ptr %3 to i64
  %5 = and i64 %4, -2
  %6 = inttoptr i64 %5 to ptr
  ret ptr %6
}

; Function Attrs: nounwind uwtable
define internal ptr @Aig_NotCond(ptr noundef %0, i32 noundef %1) #0 {
  %3 = alloca ptr, align 8
  %4 = alloca i32, align 4
  store ptr %0, ptr %3, align 8
  store i32 %1, ptr %4, align 4
  %5 = load ptr, ptr %3, align 8
  %6 = ptrtoint ptr %5 to i64
  %7 = load i32, ptr %4, align 4
  %8 = sext i32 %7 to i64
  %9 = xor i64 %6, %8
  %10 = inttoptr i64 %9 to ptr
  ret ptr %10
}

; Function Attrs: nounwind uwtable
define internal ptr @Aig_ManObj(ptr noundef %0, i32 noundef %1) #0 {
  %3 = alloca ptr, align 8
  %4 = alloca i32, align 4
  store ptr %0, ptr %3, align 8
  store i32 %1, ptr %4, align 4
  %5 = load ptr, ptr %3, align 8
  %6 = getelementptr inbounds %struct.Aig_Man_t_, ptr %5, i32 0, i32 4
  %7 = load ptr, ptr %6, align 8
  %8 = icmp ne ptr %7, null
  br i1 %8, label %9, label %15

9:                                                ; preds = %2
  %10 = load ptr, ptr %3, align 8
  %11 = getelementptr inbounds %struct.Aig_Man_t_, ptr %10, i32 0, i32 4
  %12 = load ptr, ptr %11, align 8
  %13 = load i32, ptr %4, align 4
  %14 = call ptr @Vec_PtrEntry(ptr noundef %12, i32 noundef %13)
  br label %16

15:                                               ; preds = %2
  br label %16

16:                                               ; preds = %15, %9
  %17 = phi ptr [ %14, %9 ], [ null, %15 ]
  ret ptr %17
}

; Function Attrs: nounwind uwtable
define i32 @Dar_LibCutMatch(ptr noundef %0, ptr noundef %1) #0 {
  %3 = alloca i32, align 4
  %4 = alloca ptr, align 8
  %5 = alloca ptr, align 8
  %6 = alloca ptr, align 8
  %7 = alloca i32, align 4
  %8 = alloca ptr, align 8
  %9 = alloca i32, align 4
  %10 = alloca float, align 4
  store ptr %0, ptr %4, align 8
  store ptr %1, ptr %5, align 8
  %11 = load ptr, ptr @s_DarLib, align 8
  %12 = getelementptr inbounds %struct.Dar_Lib_t_, ptr %11, i32 0, i32 31
  %13 = load ptr, ptr %12, align 8
  %14 = load ptr, ptr %5, align 8
  %15 = getelementptr inbounds %struct.Dar_Cut_t_, ptr %14, i32 0, i32 1
  %16 = load i32, ptr %15, align 4
  %17 = and i32 %16, 65535
  %18 = zext i32 %17 to i64
  %19 = getelementptr inbounds i8, ptr %13, i64 %18
  %20 = load i8, ptr %19, align 1
  %21 = sext i8 %20 to i32
  store i32 %21, ptr %7, align 4
  %22 = load ptr, ptr @s_DarLib, align 8
  %23 = getelementptr inbounds %struct.Dar_Lib_t_, ptr %22, i32 0, i32 29
  %24 = load ptr, ptr %23, align 8
  %25 = load ptr, ptr @s_DarLib, align 8
  %26 = getelementptr inbounds %struct.Dar_Lib_t_, ptr %25, i32 0, i32 32
  %27 = load ptr, ptr %26, align 8
  %28 = load ptr, ptr %5, align 8
  %29 = getelementptr inbounds %struct.Dar_Cut_t_, ptr %28, i32 0, i32 1
  %30 = load i32, ptr %29, align 4
  %31 = and i32 %30, 65535
  %32 = zext i32 %31 to i64
  %33 = getelementptr inbounds i8, ptr %27, i64 %32
  %34 = load i8, ptr %33, align 1
  %35 = sext i8 %34 to i32
  %36 = sext i32 %35 to i64
  %37 = getelementptr inbounds ptr, ptr %24, i64 %36
  %38 = load ptr, ptr %37, align 8
  store ptr %38, ptr %8, align 8
  store i32 0, ptr %9, align 4
  br label %39

39:                                               ; preds = %136, %2
  %40 = load i32, ptr %9, align 4
  %41 = load ptr, ptr %5, align 8
  %42 = getelementptr inbounds %struct.Dar_Cut_t_, ptr %41, i32 0, i32 1
  %43 = load i32, ptr %42, align 4
  %44 = lshr i32 %43, 29
  %45 = icmp slt i32 %40, %44
  br i1 %45, label %46, label %139

46:                                               ; preds = %39
  %47 = load ptr, ptr %4, align 8
  %48 = getelementptr inbounds %struct.Dar_Man_t_, ptr %47, i32 0, i32 1
  %49 = load ptr, ptr %48, align 8
  %50 = load ptr, ptr %5, align 8
  %51 = getelementptr inbounds %struct.Dar_Cut_t_, ptr %50, i32 0, i32 2
  %52 = load ptr, ptr %8, align 8
  %53 = load i32, ptr %9, align 4
  %54 = sext i32 %53 to i64
  %55 = getelementptr inbounds i8, ptr %52, i64 %54
  %56 = load i8, ptr %55, align 1
  %57 = sext i8 %56 to i32
  %58 = sext i32 %57 to i64
  %59 = getelementptr inbounds [4 x i32], ptr %51, i64 0, i64 %58
  %60 = load i32, ptr %59, align 4
  %61 = call ptr @Aig_ManObj(ptr noundef %49, i32 noundef %60)
  store ptr %61, ptr %6, align 8
  %62 = load ptr, ptr %6, align 8
  %63 = icmp eq ptr %62, null
  br i1 %63, label %64, label %69

64:                                               ; preds = %46
  %65 = load ptr, ptr %4, align 8
  %66 = getelementptr inbounds %struct.Dar_Man_t_, ptr %65, i32 0, i32 21
  %67 = load i32, ptr %66, align 8
  %68 = add nsw i32 %67, 1
  store i32 %68, ptr %66, align 8
  store i32 0, ptr %3, align 4
  br label %144

69:                                               ; preds = %46
  %70 = load ptr, ptr %6, align 8
  %71 = load i32, ptr %7, align 4
  %72 = load i32, ptr %9, align 4
  %73 = lshr i32 %71, %72
  %74 = and i32 %73, 1
  %75 = call ptr @Aig_NotCond(ptr noundef %70, i32 noundef %74)
  store ptr %75, ptr %6, align 8
  %76 = load ptr, ptr %6, align 8
  %77 = load ptr, ptr @s_DarLib, align 8
  %78 = getelementptr inbounds %struct.Dar_Lib_t_, ptr %77, i32 0, i32 27
  %79 = load ptr, ptr %78, align 8
  %80 = load i32, ptr %9, align 4
  %81 = sext i32 %80 to i64
  %82 = getelementptr inbounds %struct.Dar_LibDat_t_, ptr %79, i64 %81
  %83 = getelementptr inbounds %struct.Dar_LibDat_t_, ptr %82, i32 0, i32 0
  store ptr %76, ptr %83, align 8
  %84 = load ptr, ptr %6, align 8
  %85 = call ptr @Aig_Regular(ptr noundef %84)
  %86 = getelementptr inbounds %struct.Aig_Obj_t_, ptr %85, i32 0, i32 3
  %87 = load i64, ptr %86, align 8
  %88 = lshr i64 %87, 32
  %89 = and i64 %88, 16777215
  %90 = trunc i64 %89 to i32
  %91 = load ptr, ptr @s_DarLib, align 8
  %92 = getelementptr inbounds %struct.Dar_Lib_t_, ptr %91, i32 0, i32 27
  %93 = load ptr, ptr %92, align 8
  %94 = load i32, ptr %9, align 4
  %95 = sext i32 %94 to i64
  %96 = getelementptr inbounds %struct.Dar_LibDat_t_, ptr %93, i64 %95
  %97 = getelementptr inbounds %struct.Dar_LibDat_t_, ptr %96, i32 0, i32 1
  store i32 %90, ptr %97, align 8
  %98 = load ptr, ptr %4, align 8
  %99 = getelementptr inbounds %struct.Dar_Man_t_, ptr %98, i32 0, i32 0
  %100 = load ptr, ptr %99, align 8
  %101 = getelementptr inbounds %struct.Dar_RwrPar_t_, ptr %100, i32 0, i32 6
  %102 = load i32, ptr %101, align 4
  %103 = icmp ne i32 %102, 0
  br i1 %103, label %104, label %135

104:                                              ; preds = %69
  %105 = load ptr, ptr %4, align 8
  %106 = getelementptr inbounds %struct.Dar_Man_t_, ptr %105, i32 0, i32 1
  %107 = load ptr, ptr %106, align 8
  %108 = getelementptr inbounds %struct.Aig_Man_t_, ptr %107, i32 0, i32 58
  %109 = load ptr, ptr %108, align 8
  %110 = load ptr, ptr %6, align 8
  %111 = call ptr @Aig_Regular(ptr noundef %110)
  %112 = call i32 @Aig_ObjId(ptr noundef %111)
  %113 = call i32 @Vec_IntEntry(ptr noundef %109, i32 noundef %112)
  %114 = call float @Abc_Int2Float(i32 noundef %113)
  store float %114, ptr %10, align 4
  %115 = load ptr, ptr %6, align 8
  %116 = call i32 @Aig_IsComplement(ptr noundef %115)
  %117 = icmp ne i32 %116, 0
  br i1 %117, label %118, label %122

118:                                              ; preds = %104
  %119 = load float, ptr %10, align 4
  %120 = fpext float %119 to double
  %121 = fsub double 1.000000e+00, %120
  br label %125

122:                                              ; preds = %104
  %123 = load float, ptr %10, align 4
  %124 = fpext float %123 to double
  br label %125

125:                                              ; preds = %122, %118
  %126 = phi double [ %121, %118 ], [ %124, %122 ]
  %127 = fptrunc double %126 to float
  %128 = load ptr, ptr @s_DarLib, align 8
  %129 = getelementptr inbounds %struct.Dar_Lib_t_, ptr %128, i32 0, i32 27
  %130 = load ptr, ptr %129, align 8
  %131 = load i32, ptr %9, align 4
  %132 = sext i32 %131 to i64
  %133 = getelementptr inbounds %struct.Dar_LibDat_t_, ptr %130, i64 %132
  %134 = getelementptr inbounds %struct.Dar_LibDat_t_, ptr %133, i32 0, i32 3
  store float %127, ptr %134, align 8
  br label %135

135:                                              ; preds = %125, %69
  br label %136

136:                                              ; preds = %135
  %137 = load i32, ptr %9, align 4
  %138 = add nsw i32 %137, 1
  store i32 %138, ptr %9, align 4
  br label %39, !llvm.loop !43

139:                                              ; preds = %39
  %140 = load ptr, ptr %4, align 8
  %141 = getelementptr inbounds %struct.Dar_Man_t_, ptr %140, i32 0, i32 22
  %142 = load i32, ptr %141, align 4
  %143 = add nsw i32 %142, 1
  store i32 %143, ptr %141, align 4
  store i32 1, ptr %3, align 4
  br label %144

144:                                              ; preds = %139, %64
  %145 = load i32, ptr %3, align 4
  ret i32 %145
}