; Function Attrs: nofree norecurse nosync nounwind memory(readwrite, inaccessiblemem: none) uwtable
define range(i32 0, 2) i32 @Dar_LibCutMatch(ptr noundef captures(none) %0, ptr noundef readonly captures(none) %1) local_unnamed_addr #11 {
  %3 = load ptr, ptr @s_DarLib, align 8
  %4 = getelementptr inbounds nuw i8, ptr %3, i64 16128
  %5 = load ptr, ptr %4, align 8
  %6 = getelementptr inbounds nuw i8, ptr %1, i64 4
  %7 = load i32, ptr %6, align 4
  %8 = and i32 %7, 65535
  %9 = zext nneg i32 %8 to i64
  %10 = getelementptr inbounds nuw i8, ptr %5, i64 %9
  %11 = load i8, ptr %10, align 1
  %12 = sext i8 %11 to i32
  %13 = getelementptr inbounds nuw i8, ptr %3, i64 16112
  %14 = load ptr, ptr %13, align 8
  %15 = getelementptr inbounds nuw i8, ptr %3, i64 16136
  %16 = load ptr, ptr %15, align 8
  %17 = getelementptr inbounds nuw i8, ptr %16, i64 %9
  %18 = load i8, ptr %17, align 1
  %19 = sext i8 %18 to i64
  %20 = getelementptr inbounds ptr, ptr %14, i64 %19
  %21 = load ptr, ptr %20, align 8
  %.not32 = icmp ult i32 %7, 536870912
  br i1 %.not32, label %._crit_edge, label %.lr.ph

.lr.ph:                                           ; preds = %2
  %22 = getelementptr inbounds nuw i8, ptr %0, i64 8
  %23 = getelementptr inbounds nuw i8, ptr %1, i64 8
  %24 = getelementptr inbounds nuw i8, ptr %3, i64 16096
  br label %25

25:                                               ; preds = %.lr.ph, %77
  %indvars.iv = phi i64 [ 0, %.lr.ph ], [ %indvars.iv.next, %77 ]
  %26 = load ptr, ptr %22, align 8
  %27 = getelementptr i8, ptr %26, i64 32
  %.val29 = load ptr, ptr %27, align 8
  %.not.i = icmp eq ptr %.val29, null
  br i1 %.not.i, label %Aig_ManObj.exit.thread, label %Aig_ManObj.exit

Aig_ManObj.exit:                                  ; preds = %25
  %28 = getelementptr inbounds nuw i8, ptr %21, i64 %indvars.iv
  %29 = load i8, ptr %28, align 1
  %30 = sext i8 %29 to i64
  %31 = getelementptr inbounds [4 x i32], ptr %23, i64 0, i64 %30
  %32 = load i32, ptr %31, align 4
  %33 = getelementptr i8, ptr %.val29, i64 8
  %.val.i = load ptr, ptr %33, align 8
  %34 = sext i32 %32 to i64
  %35 = getelementptr inbounds ptr, ptr %.val.i, i64 %34
  %36 = load ptr, ptr %35, align 8
  %37 = icmp eq ptr %36, null
  br i1 %37, label %Aig_ManObj.exit.thread, label %41

Aig_ManObj.exit.thread:                           ; preds = %25, %Aig_ManObj.exit
  %38 = getelementptr inbounds nuw i8, ptr %0, i64 2760
  %39 = load i32, ptr %38, align 8
  %40 = add nsw i32 %39, 1
  store i32 %40, ptr %38, align 8
  br label %85

41:                                               ; preds = %Aig_ManObj.exit
  %42 = trunc nuw nsw i64 %indvars.iv to i32
  %43 = lshr i32 %12, %42
  %44 = and i32 %43, 1
  %45 = ptrtoint ptr %36 to i64
  %46 = zext nneg i32 %44 to i64
  %47 = xor i64 %45, %46
  %48 = inttoptr i64 %47 to ptr
  %49 = load ptr, ptr %24, align 8
  %50 = getelementptr inbounds nuw %struct.Dar_LibDat_t_, ptr %49, i64 %indvars.iv
  store ptr %48, ptr %50, align 8
  %51 = and i64 %45, -2
  %52 = inttoptr i64 %51 to ptr
  %53 = getelementptr inbounds nuw i8, ptr %52, i64 24
  %54 = load i64, ptr %53, align 8
  %55 = lshr i64 %54, 32
  %56 = trunc nuw i64 %55 to i32
  %57 = and i32 %56, 16777215
  %58 = load ptr, ptr %24, align 8
  %59 = getelementptr inbounds nuw %struct.Dar_LibDat_t_, ptr %58, i64 %indvars.iv, i32 1
  store i32 %57, ptr %59, align 8
  %60 = load ptr, ptr %0, align 8
  %61 = getelementptr inbounds nuw i8, ptr %60, i64 24
  %62 = load i32, ptr %61, align 4
  %.not = icmp eq i32 %62, 0
  br i1 %.not, label %77, label %63

63:                                               ; preds = %41
  %64 = load ptr, ptr %22, align 8
  %65 = getelementptr inbounds nuw i8, ptr %64, i64 464
  %66 = load ptr, ptr %65, align 8
  %67 = getelementptr i8, ptr %52, i64 36
  %.val30 = load i32, ptr %67, align 4
  %68 = getelementptr i8, ptr %66, i64 8
  %.val = load ptr, ptr %68, align 8
  %69 = sext i32 %.val30 to i64
  %70 = getelementptr inbounds i32, ptr %.val, i64 %69
  %71 = load float, ptr %70, align 4
  %72 = and i64 %47, 1
  %.not28 = icmp eq i64 %72, 0
  %73 = fsub float 1.000000e+00, %71
  %74 = select i1 %.not28, float %71, float %73
  %75 = load ptr, ptr %24, align 8
  %76 = getelementptr inbounds nuw %struct.Dar_LibDat_t_, ptr %75, i64 %indvars.iv, i32 3
  store float %74, ptr %76, align 8
  br label %77

77:                                               ; preds = %41, %63
  %indvars.iv.next = add nuw nsw i64 %indvars.iv, 1
  %78 = load i32, ptr %6, align 4
  %79 = lshr i32 %78, 29
  %80 = zext nneg i32 %79 to i64
  %81 = icmp samesign ult i64 %indvars.iv.next, %80
  br i1 %81, label %25, label %._crit_edge, !llvm.loop !35

._crit_edge:                                      ; preds = %77, %2
  %82 = getelementptr inbounds nuw i8, ptr %0, i64 2764
  %83 = load i32, ptr %82, align 4
  %84 = add nsw i32 %83, 1
  store i32 %84, ptr %82, align 4
  br label %85

85:                                               ; preds = %._crit_edge, %Aig_ManObj.exit.thread
  %.0 = phi i32 [ 0, %Aig_ManObj.exit.thread ], [ 1, %._crit_edge ]
  ret i32 %.0
}